{
<JVM stack probe with 1 Java stack frames>
Memcheck:Addr4
obj:???
fun:_ZN9JavaCalls11call_helperEP9JavaValueRK12methodHandleP17JavaCallArgumentsP6Thread
...
}
{
<JVM stack probe with 2 Java stack frames>
Memcheck:Addr4
obj:???
obj:???
fun:_ZN9JavaCalls11call_helperEP9JavaValueRK12methodHandleP17JavaCallArgumentsP6Thread
...
}
{
<JVM stack probe with 3 Java stack frames>
Memcheck:Addr4
obj:???
obj:???
obj:???
fun:_ZN9JavaCalls11call_helperEP9JavaValueRK12methodHandleP17JavaCallArgumentsP6Thread
...
}
{
<JVM stack probe with 4 Java stack frames>
Memcheck:Addr4
obj:???
obj:???
obj:???
obj:???
fun:_ZN9JavaCalls11call_helperEP9JavaValueRK12methodHandleP17JavaCallArgumentsP6Thread
...
}
{
<JVM stack probe with 5 Java stack frames>
Memcheck:Addr4
obj:???
obj:???
obj:???
obj:???
obj:???
fun:_ZN9JavaCalls11call_helperEP9JavaValueRK12methodHandleP17JavaCallArgumentsP6Thread
...
}
{
<JVM stack probe with 6 Java stack frames>
Memcheck:Addr4
obj:???
obj:???
obj:???
obj:???
obj:???
obj:???
fun:_ZN9JavaCalls11call_helperEP9JavaValueRK12methodHandleP17JavaCallArgumentsP6Thread
...
}
{
<JVM stack probe with 7 Java stack frames>
Memcheck:Addr4
obj:???
obj:???
obj:???
obj:???
obj:???
obj:???
obj:???
fun:_ZN9JavaCalls11call_helperEP9JavaValueRK12methodHandleP17JavaCallArgumentsP6Thread
...
}
{
<JVM stack probe with 8 Java stack frames>
Memcheck:Addr4
obj:???
obj:???
obj:???
obj:???
obj:???
obj:???
obj:???
obj:???
fun:_ZN9JavaCalls11call_helperEP9JavaValueRK12methodHandleP17JavaCallArgumentsP6Thread
...
}
{
<JVM stack probe with 9 Java stack frames>
Memcheck:Addr4
obj:???
obj:???
obj:???
obj:???
obj:???
obj:???
obj:???
obj:???
obj:???
fun:_ZN9JavaCalls11call_helperEP9JavaValueRK12methodHandleP17JavaCallArgumentsP6Thread
...
}
{
<JVM stack probe with 10 Java stack frames>
Memcheck:Addr4
obj:???
obj:???
obj:???
obj:???
obj:???
obj:???
obj:???
obj:???
obj:???
obj:???
fun:_ZN9JavaCalls11call_helperEP9JavaValueRK12methodHandleP17JavaCallArgumentsP6Thread
...
}
{
<JVM stack probe with 11 Java stack frames>
Memcheck:Addr4
obj:???
obj:???
obj:???
obj:???
obj:???
obj:???
obj:???
obj:???
obj:???
obj:???
obj:???
fun:_ZN9JavaCalls11call_helperEP9JavaValueRK12methodHandleP17JavaCallArgumentsP6Thread
...
}
{
<JVM stack probe with 12 Java stack frames>
Memcheck:Addr4
obj:???
obj:???
obj:???
obj:???
obj:???
obj:???
obj:???
obj:???
obj:???
obj:???
obj:???
obj:???
fun:_ZN9JavaCalls11call_helperEP9JavaValueRK12methodHandleP17JavaCallArgumentsP6Thread
...
}
{
<JVM stack probe with 13 Java stack frames>
Memcheck:Addr4
obj:???
obj:???
obj:???
obj:???
obj:???
obj:???
obj:???
obj:???
obj:???
obj:???
obj:???
obj:???
obj:???
fun:_ZN9JavaCalls11call_helperEP9JavaValueRK12methodHandleP17JavaCallArgumentsP6Thread
...
}
{
<JVM stack probe with 14 Java stack frames>
Memcheck:Addr4
obj:???
obj:???
obj:???
obj:???
obj:???
obj:???
obj:???
obj:???
obj:???
obj:???
obj:???
obj:???
obj:???
obj:???
fun:_ZN9JavaCalls11call_helperEP9JavaValueRK12methodHandleP17JavaCallArgumentsP6Thread
...
}
{
<JVM stack probe with 15 Java stack frames>
Memcheck:Addr4
obj:???
obj:???
obj:???
obj:???
obj:???
obj:???
obj:???
obj:???
obj:???
obj:???
obj:???
obj:???
obj:???
obj:???
obj:???
fun:_ZN9JavaCalls11call_helperEP9JavaValueRK12methodHandleP17JavaCallArgumentsP6Thread
...
}
{
<JVM stack probe with 16 Java stack frames>
Memcheck:Addr4
obj:???
obj:???
obj:???
obj:???
obj:???
obj:???
obj:???
obj:???
obj:???
obj:???
obj:???
obj:???
obj:???
obj:???
obj:???
obj:???
fun:_ZN9JavaCalls11call_helperEP9JavaValueRK12methodHandleP17JavaCallArgumentsP6Thread
...
}
{
<JVM stack probe with 17 Java stack frames>
Memcheck:Addr4
obj:???
obj:???
obj:???
obj:???
obj:???
obj:???
obj:???
obj:???
obj:???
obj:???
obj:???
obj:???
obj:???
obj:???
obj:???
obj:???
obj:???
fun:_ZN9JavaCalls11call_helperEP9JavaValueRK12methodHandleP17JavaCallArgumentsP6Thread
...
}
{
<JVM stack probe with 18 Java stack frames>
Memcheck:Addr4
obj:???
obj:???
obj:???
obj:???
obj:???
obj:???
obj:???
obj:???
obj:???
obj:???
obj:???
obj:???
obj:???
obj:???
obj:???
obj:???
obj:???
obj:???
fun:_ZN9JavaCalls11call_helperEP9JavaValueRK12methodHandleP17JavaCallArgumentsP6Thread
...
}
{
<JVM stack probe with 19 Java stack frames>
Memcheck:Addr4
obj:???
obj:???
obj:???
obj:???
obj:???
obj:???
obj:???
obj:???
obj:???
obj:???
obj:???
obj:???
obj:???
obj:???
obj:???
obj:???
obj:???
obj:???
obj:???
fun:_ZN9JavaCalls11call_helperEP9JavaValueRK12methodHandleP17JavaCallArgumentsP6Thread
...
}
{
<JVM stack probe with 20 Java stack frames>
Memcheck:Addr4
obj:???
obj:???
obj:???
obj:???
obj:???
obj:???
obj:???
obj:???
obj:???
obj:???
obj:???
obj:???
obj:???
obj:???
obj:???
obj:???
obj:???
obj:???
obj:???
obj:???
fun:_ZN9JavaCalls11call_helperEP9JavaValueRK12methodHandleP17JavaCallArgumentsP6Thread
...
}
{
<JVM stack probe on Java thread with 2 Java stack frames>
Memcheck:Addr4
obj:???
obj:???
}
{
<JVM stack probe on Java thread with 5 Java stack frames>
Memcheck:Addr4
obj:???
obj:???
obj:???
obj:???
obj:???
}
{
<JVM stack probe in classes.jsa>
Memcheck:Addr4
obj:???
obj:???
obj:???
obj:???
obj:???
obj:???
obj:???
obj:???
obj:???
obj:???
obj:???
obj:???
obj:???
obj:???
obj:???
obj:*/lib/server/classes.jsa
obj:???
obj:*/lib/server/classes.jsa
obj:???
obj:*/lib/server/classes.jsa
}

